(dp0
Vfullscreen_mode
p1
I0
sVorientation
p2
Vhorizontal
p3
sVfocus
p4
(lp5
I94591131840800
aI94591131821904
aI94591131872576
aI94591131812496
asVsticky
p6
I00
sVurgent
p7
I00
sVlast_split_layout
p8
Vsplith
p9
sVfloating
p10
Vauto_off
p11
sVborder
p12
Vnormal
p13
sVid
p14
I94591131809776
sVcurrent_border_width
p15
I-1
sVlayout
p16
Vsplith
p17
sVpercent
p18
F1.0
sVworkspace_layout
p19
Vdefault
p20
sVwindow
p21
NsVnodes
p22
(lp23
(dp24
Vfullscreen_mode
p25
I0
sVorientation
p26
Vnone
p27
sVfocus
p28
(lp29
I94591131812992
asVsticky
p30
I00
sVurgent
p31
I00
sVlast_split_layout
p32
Vsplith
p33
sVfloating
p34
Vauto_off
p35
sVborder
p36
Vnormal
p37
sVid
p38
I94591131812496
sVcurrent_border_width
p39
I-1
sVlayout
p40
Voutput
p41
sVpercent
p42
F0.25
sVworkspace_layout
p43
Vdefault
p44
sVwindow
p45
NsVnodes
p46
(lp47
(dp48
Vfullscreen_mode
p49
I0
sVorientation
p50
Vhorizontal
p51
sVfocus
p52
(lp53
I94591131813488
asVsticky
p54
I00
sVurgent
p55
I00
sVlast_split_layout
p56
Vsplith
p57
sVfloating
p58
Vauto_off
p59
sVborder
p60
Vnormal
p61
sVid
p62
I94591131812992
sVcurrent_border_width
p63
I-1
sVlayout
p64
Vsplith
p65
sVpercent
p66
F1.0
sVworkspace_layout
p67
Vdefault
p68
sVwindow
p69
NsVnodes
p70
(lp71
(dp72
Vfullscreen_mode
p73
I1
sVorientation
p74
Vnone
p75
sVfocus
p76
(lp77
sVsticky
p78
I00
sVurgent
p79
I00
sVnum
p80
I-1
sVlast_split_layout
p81
Vsplith
p82
sVfloating
p83
Vauto_off
p84
sVborder
p85
Vnormal
p86
sVid
p87
I94591131813488
sVcurrent_border_width
p88
I-1
sVlayout
p89
Vsplith
p90
sVpercent
p91
F1.0
sVworkspace_layout
p92
Vdefault
p93
sVwindow
p94
NsVnodes
p95
(lp96
sVtype
p97
Vworkspace
p98
sVdeco_rect
p99
(dp100
Vy
p101
I0
sVx
p102
I0
sVheight
p103
I0
sVwidth
p104
I0
ssVswallows
p105
(lp106
sVfocused
p107
I00
sVscratchpad_state
p108
Vnone
p109
sVrect
p110
(dp111
g101
I0
sg102
I0
sVheight
p112
I0
sVwidth
p113
I0
ssVwindow_rect
p114
(dp115
g101
I0
sg102
I0
sVheight
p116
I0
sVwidth
p117
I0
ssVname
p118
V__i3_scratch
p119
sVgeometry
p120
(dp121
g101
I0
sg102
I0
sVheight
p122
I0
sVwidth
p123
I0
ssVfloating_nodes
p124
(lp125
sVoutput
p126
V__i3
p127
sasVtype
p128
Vcon
p129
sVdeco_rect
p130
(dp131
g101
I0
sg102
I0
sVheight
p132
I0
sVwidth
p133
I0
ssVswallows
p134
(lp135
sVfocused
p136
I00
sVscratchpad_state
p137
Vnone
p138
sVrect
p139
(dp140
g101
I0
sg102
I0
sVheight
p141
I0
sVwidth
p142
I0
ssVwindow_rect
p143
(dp144
g101
I0
sg102
I0
sVheight
p145
I0
sVwidth
p146
I0
ssVname
p147
Vcontent
p148
sVgeometry
p149
(dp150
g101
I0
sg102
I0
sVheight
p151
I0
sVwidth
p152
I0
ssVfloating_nodes
p153
(lp154
sVoutput
p155
V__i3
p156
sasVtype
p157
Voutput
p158
sVdeco_rect
p159
(dp160
g101
I0
sg102
I0
sVheight
p161
I0
sVwidth
p162
I0
ssVswallows
p163
(lp164
sVfocused
p165
I00
sVscratchpad_state
p166
Vnone
p167
sVrect
p168
(dp169
g101
I0
sg102
I0
sVheight
p170
I1200
sVwidth
p171
I1920
ssVwindow_rect
p172
(dp173
g101
I0
sg102
I0
sVheight
p174
I0
sVwidth
p175
I0
ssVname
p176
V__i3
p177
sVgeometry
p178
(dp179
g101
I0
sg102
I0
sVheight
p180
I0
sVwidth
p181
I0
ssVfloating_nodes
p182
(lp183
sa(dp184
Vfullscreen_mode
p185
I0
sVorientation
p186
Vnone
p187
sVfocus
p188
(lp189
I94591131825536
aI94591131822400
aI94591131835024
asVsticky
p190
I00
sVurgent
p191
I00
sVlast_split_layout
p192
Vsplith
p193
sVfloating
p194
Vauto_off
p195
sVborder
p196
Vnormal
p197
sVid
p198
I94591131821904
sVcurrent_border_width
p199
I-1
sVlayout
p200
Voutput
p201
sVpercent
p202
F0.25
sVworkspace_layout
p203
Vdefault
p204
sVwindow
p205
NsVnodes
p206
(lp207
(dp208
Vfullscreen_mode
p209
I0
sVorientation
p210
Vnone
p211
sVfocus
p212
(lp213
I94591131787664
asVsticky
p214
I00
sVurgent
p215
I00
sVlast_split_layout
p216
Vsplith
p217
sVfloating
p218
Vauto_off
p219
sVborder
p220
Vnormal
p221
sVid
p222
I94591131822400
sVcurrent_border_width
p223
I-1
sVlayout
p224
Vdockarea
p225
sVpercent
p226
F0.3333333333333333
sVworkspace_layout
p227
Vdefault
p228
sVwindow
p229
NsVnodes
p230
(lp231
(dp232
Vwindow_properties
p233
(dp234
Vinstance
p235
Vi3bar
p236
sVtransient_for
p237
NsVclass
p238
Vi3bar
p239
sVtitle
p240
Vi3bar for output DP-4
p241
ssVfullscreen_mode
p242
I0
sVorientation
p243
Vnone
p244
sVprocess
p245
S'i3bar'
p246
sVfocus
p247
(lp248
sVsticky
p249
I00
sVurgent
p250
I00
sVlast_split_layout
p251
Vsplith
p252
sVfloating
p253
Vauto_off
p254
sVborder
p255
Vnormal
p256
sVid
p257
I94591131787664
sVcurrent_border_width
p258
I2
sVlayout
p259
Vsplith
p260
sVpercent
p261
F1.0
sVworkspace_layout
p262
Vdefault
p263
sVwindow
p264
I35651640
sVnodes
p265
(lp266
sVtype
p267
Vcon
p268
sVdeco_rect
p269
(dp270
g101
I0
sg102
I0
sVheight
p271
I0
sVwidth
p272
I0
ssVswallows
p273
(lp274
sVfocused
p275
I00
sVscratchpad_state
p276
Vnone
p277
sVrect
p278
(dp279
g101
I0
sg102
I1920
sVheight
p280
I23
sVwidth
p281
I1920
ssVwindow_rect
p282
(dp283
g101
I0
sg102
I0
sVheight
p284
I23
sVwidth
p285
I1920
ssVname
p286
Vi3bar for output DP-4
p287
sVgeometry
p288
(dp289
g101
I1177
sg102
I1920
sVheight
p290
I23
sVwidth
p291
I1920
ssVfloating_nodes
p292
(lp293
sVoutput
p294
VDP-4
p295
sasVtype
p296
Vdockarea
p297
sVdeco_rect
p298
(dp299
g101
I0
sg102
I0
sVheight
p300
I0
sVwidth
p301
I0
ssVswallows
p302
(lp303
(dp304
Vdock
p305
I2
sVinsert_where
p306
I2
sasVfocused
p307
I00
sVscratchpad_state
p308
Vnone
p309
sVrect
p310
(dp311
g101
I0
sg102
I1920
sVheight
p312
I23
sVwidth
p313
I1920
ssVwindow_rect
p314
(dp315
g101
I0
sg102
I0
sVheight
p316
I0
sVwidth
p317
I0
ssVname
p318
Vtopdock
p319
sVgeometry
p320
(dp321
g101
I0
sg102
I0
sVheight
p322
I0
sVwidth
p323
I0
ssVfloating_nodes
p324
(lp325
sVoutput
p326
VDP-4
p327
sa(dp328
Vfullscreen_mode
p329
I0
sVorientation
p330
Vhorizontal
p331
sVfocus
p332
(lp333
I94591131826032
asVsticky
p334
I00
sVurgent
p335
I00
sVlast_split_layout
p336
Vsplith
p337
sVfloating
p338
Vauto_off
p339
sVborder
p340
Vnormal
p341
sVid
p342
I94591131825536
sVcurrent_border_width
p343
I-1
sVlayout
p344
Vsplith
p345
sVpercent
p346
F0.3333333333333333
sVworkspace_layout
p347
Vdefault
p348
sVwindow
p349
NsVnodes
p350
(lp351
(dp352
Vfullscreen_mode
p353
I1
sVorientation
p354
Vhorizontal
p355
sVfocus
p356
(lp357
I94591131826528
asVsticky
p358
I00
sVurgent
p359
I00
sVnum
p360
I2
sVlast_split_layout
p361
Vsplith
p362
sVfloating
p363
Vauto_off
p364
sVborder
p365
Vnormal
p366
sVid
p367
I94591131826032
sVcurrent_border_width
p368
I-1
sVlayout
p369
Vsplith
p370
sVpercent
p371
F1.0
sVworkspace_layout
p372
Vdefault
p373
sVwindow
p374
NsVnodes
p375
(lp376
(dp377
Vwindow_properties
p378
(dp379
Vinstance
p380
VNavigator
p381
sVtransient_for
p382
NsVwindow_role
p383
Vbrowser
p384
sVclass
p385
VFirefox
p386
sVtitle
p387
Vjoepestro/i3session: The missing session manager for i3-wm - Mozilla Firefox
p388
ssVfullscreen_mode
p389
I0
sVorientation
p390
Vnone
p391
sg245
S'firefox'
p392
sVfocus
p393
(lp394
sVsticky
p395
I00
sVurgent
p396
I00
sVlast_split_layout
p397
Vsplith
p398
sVfloating
p399
Vauto_off
p400
sVborder
p401
Vpixel
p402
sVid
p403
I94591131826528
sVcurrent_border_width
p404
I2
sVlayout
p405
Vsplith
p406
sVpercent
p407
F1.0
sVworkspace_layout
p408
Vdefault
p409
sVwindow
p410
I44040208
sVnodes
p411
(lp412
sVtype
p413
Vcon
p414
sVdeco_rect
p415
(dp416
g101
I0
sg102
I0
sVheight
p417
I0
sVwidth
p418
I0
ssVswallows
p419
(lp420
sVfocused
p421
I00
sVscratchpad_state
p422
Vnone
p423
sVrect
p424
(dp425
g101
I23
sg102
I1920
sVheight
p426
I1177
sVwidth
p427
I1920
ssVwindow_rect
p428
(dp429
g101
I2
sg102
I2
sVheight
p430
I1173
sVwidth
p431
I1916
ssVname
p432
Vjoepestro/i3session: The missing session manager for i3-wm - Mozilla Firefox
p433
sVgeometry
p434
(dp435
g101
I0
sg102
I0
sVheight
p436
I900
sVwidth
p437
I1440
ssVfloating_nodes
p438
(lp439
sVoutput
p440
VDP-4
p441
sasVtype
p442
Vworkspace
p443
sVdeco_rect
p444
(dp445
g101
I0
sg102
I0
sVheight
p446
I0
sVwidth
p447
I0
ssVswallows
p448
(lp449
sVfocused
p450
I00
sVscratchpad_state
p451
Vnone
p452
sVrect
p453
(dp454
g101
I23
sg102
I1920
sVheight
p455
I1177
sVwidth
p456
I1920
ssVwindow_rect
p457
(dp458
g101
I0
sg102
I0
sVheight
p459
I0
sVwidth
p460
I0
ssVname
p461
V2
p462
sVgeometry
p463
(dp464
g101
I0
sg102
I0
sVheight
p465
I0
sVwidth
p466
I0
ssVfloating_nodes
p467
(lp468
sVoutput
p469
VDP-4
p470
sasVtype
p471
Vcon
p472
sVdeco_rect
p473
(dp474
g101
I0
sg102
I0
sVheight
p475
I0
sVwidth
p476
I0
ssVswallows
p477
(lp478
sVfocused
p479
I00
sVscratchpad_state
p480
Vnone
p481
sVrect
p482
(dp483
g101
I23
sg102
I1920
sVheight
p484
I1177
sVwidth
p485
I1920
ssVwindow_rect
p486
(dp487
g101
I0
sg102
I0
sVheight
p488
I0
sVwidth
p489
I0
ssVname
p490
Vcontent
p491
sVgeometry
p492
(dp493
g101
I0
sg102
I0
sVheight
p494
I0
sVwidth
p495
I0
ssVfloating_nodes
p496
(lp497
sVoutput
p498
VDP-4
p499
sa(dp500
Vfullscreen_mode
p501
I0
sVorientation
p502
Vnone
p503
sVfocus
p504
(lp505
sVsticky
p506
I00
sVurgent
p507
I00
sVlast_split_layout
p508
Vsplith
p509
sVfloating
p510
Vauto_off
p511
sVborder
p512
Vnormal
p513
sVid
p514
I94591131835024
sVcurrent_border_width
p515
I-1
sVlayout
p516
Vdockarea
p517
sVpercent
p518
F0.3333333333333333
sVworkspace_layout
p519
Vdefault
p520
sVwindow
p521
NsVnodes
p522
(lp523
sVtype
p524
Vdockarea
p525
sVdeco_rect
p526
(dp527
g101
I0
sg102
I0
sVheight
p528
I0
sVwidth
p529
I0
ssVswallows
p530
(lp531
(dp532
Vdock
p533
I3
sVinsert_where
p534
I2
sasVfocused
p535
I00
sVscratchpad_state
p536
Vnone
p537
sVrect
p538
(dp539
g101
I1200
sg102
I1920
sVheight
p540
I0
sVwidth
p541
I1920
ssVwindow_rect
p542
(dp543
g101
I0
sg102
I0
sVheight
p544
I0
sVwidth
p545
I0
ssVname
p546
Vbottomdock
p547
sVgeometry
p548
(dp549
g101
I0
sg102
I0
sVheight
p550
I0
sVwidth
p551
I0
ssVfloating_nodes
p552
(lp553
sVoutput
p554
VDP-4
p555
sasVtype
p556
Voutput
p557
sVdeco_rect
p558
(dp559
g101
I0
sg102
I0
sVheight
p560
I0
sVwidth
p561
I0
ssVswallows
p562
(lp563
sVfocused
p564
I00
sVscratchpad_state
p565
Vnone
p566
sVrect
p567
(dp568
g101
I0
sg102
I1920
sVheight
p569
I1200
sVwidth
p570
I1920
ssVwindow_rect
p571
(dp572
g101
I0
sg102
I0
sVheight
p573
I0
sVwidth
p574
I0
ssVname
p575
VDP-4
p576
sVgeometry
p577
(dp578
g101
I0
sg102
I0
sVheight
p579
I0
sVwidth
p580
I0
ssVfloating_nodes
p581
(lp582
sa(dp583
Vfullscreen_mode
p584
I0
sVorientation
p585
Vnone
p586
sVfocus
p587
(lp588
I94591131844432
aI94591131841296
aI94591131866656
asVsticky
p589
I00
sVurgent
p590
I00
sVlast_split_layout
p591
Vsplith
p592
sVfloating
p593
Vauto_off
p594
sVborder
p595
Vnormal
p596
sVid
p597
I94591131840800
sVcurrent_border_width
p598
I-1
sVlayout
p599
Voutput
p600
sVpercent
p601
F0.25
sVworkspace_layout
p602
Vdefault
p603
sVwindow
p604
NsVnodes
p605
(lp606
(dp607
Vfullscreen_mode
p608
I0
sVorientation
p609
Vnone
p610
sVfocus
p611
(lp612
I94591132026224
asVsticky
p613
I00
sVurgent
p614
I00
sVlast_split_layout
p615
Vsplith
p616
sVfloating
p617
Vauto_off
p618
sVborder
p619
Vnormal
p620
sVid
p621
I94591131841296
sVcurrent_border_width
p622
I-1
sVlayout
p623
Vdockarea
p624
sVpercent
p625
F0.3333333333333333
sVworkspace_layout
p626
Vdefault
p627
sVwindow
p628
NsVnodes
p629
(lp630
(dp631
Vwindow_properties
p632
(dp633
Vinstance
p634
Vi3bar
p635
sVtransient_for
p636
NsVclass
p637
Vi3bar
p638
sVtitle
p639
Vi3bar for output HDMI-0
p640
ssVfullscreen_mode
p641
I0
sVorientation
p642
Vnone
p643
sg245
S'i3bar'
p644
sVfocus
p645
(lp646
sVsticky
p647
I00
sVurgent
p648
I00
sVlast_split_layout
p649
Vsplith
p650
sVfloating
p651
Vauto_off
p652
sVborder
p653
Vnormal
p654
sVid
p655
I94591132026224
sVcurrent_border_width
p656
I2
sVlayout
p657
Vsplith
p658
sVpercent
p659
F1.0
sVworkspace_layout
p660
Vdefault
p661
sVwindow
p662
I35651628
sVnodes
p663
(lp664
sVtype
p665
Vcon
p666
sVdeco_rect
p667
(dp668
g101
I0
sg102
I0
sVheight
p669
I0
sVwidth
p670
I0
ssVswallows
p671
(lp672
sVfocused
p673
I00
sVscratchpad_state
p674
Vnone
p675
sVrect
p676
(dp677
g101
I0
sg102
I0
sVheight
p678
I23
sVwidth
p679
I1920
ssVwindow_rect
p680
(dp681
g101
I0
sg102
I0
sVheight
p682
I23
sVwidth
p683
I1920
ssVname
p684
Vi3bar for output HDMI-0
p685
sVgeometry
p686
(dp687
g101
I1177
sg102
I0
sVheight
p688
I23
sVwidth
p689
I1920
ssVfloating_nodes
p690
(lp691
sVoutput
p692
VHDMI-0
p693
sasVtype
p694
Vdockarea
p695
sVdeco_rect
p696
(dp697
g101
I0
sg102
I0
sVheight
p698
I0
sVwidth
p699
I0
ssVswallows
p700
(lp701
(dp702
Vdock
p703
I2
sVinsert_where
p704
I2
sasVfocused
p705
I00
sVscratchpad_state
p706
Vnone
p707
sVrect
p708
(dp709
g101
I0
sg102
I0
sVheight
p710
I23
sVwidth
p711
I1920
ssVwindow_rect
p712
(dp713
g101
I0
sg102
I0
sVheight
p714
I0
sVwidth
p715
I0
ssVname
p716
Vtopdock
p717
sVgeometry
p718
(dp719
g101
I0
sg102
I0
sVheight
p720
I0
sVwidth
p721
I0
ssVfloating_nodes
p722
(lp723
sVoutput
p724
VHDMI-0
p725
sa(dp726
Vfullscreen_mode
p727
I0
sVorientation
p728
Vhorizontal
p729
sVfocus
p730
(lp731
I94591131844928
asVsticky
p732
I00
sVurgent
p733
I00
sVlast_split_layout
p734
Vsplith
p735
sVfloating
p736
Vauto_off
p737
sVborder
p738
Vnormal
p739
sVid
p740
I94591131844432
sVcurrent_border_width
p741
I-1
sVlayout
p742
Vsplith
p743
sVpercent
p744
F0.3333333333333333
sVworkspace_layout
p745
Vdefault
p746
sVwindow
p747
NsVnodes
p748
(lp749
(dp750
Vfullscreen_mode
p751
I1
sVorientation
p752
Vhorizontal
p753
sVfocus
p754
(lp755
I94591131854976
aI94591131845424
asVsticky
p756
I00
sVurgent
p757
I00
sVnum
p758
I1
sVlast_split_layout
p759
Vsplith
p760
sVfloating
p761
Vauto_off
p762
sVborder
p763
Vnormal
p764
sVid
p765
I94591131844928
sVcurrent_border_width
p766
I-1
sVlayout
p767
Vsplith
p768
sVpercent
p769
F1.0
sVworkspace_layout
p770
Vdefault
p771
sVwindow
p772
NsVnodes
p773
(lp774
(dp775
Vfullscreen_mode
p776
I0
sVorientation
p777
Vvertical
p778
sVfocus
p779
(lp780
I94591131849040
aI94591131845888
asVsticky
p781
I00
sVurgent
p782
I00
sVlast_split_layout
p783
Vsplitv
p784
sVfloating
p785
Vauto_off
p786
sVborder
p787
Vnormal
p788
sVid
p789
I94591131845424
sVcurrent_border_width
p790
I-1
sVlayout
p791
Vsplitv
p792
sVpercent
p793
F0.5
sVworkspace_layout
p794
Vdefault
p795
sVwindow
p796
NsVnodes
p797
(lp798
(dp799
Vwindow_properties
p800
(dp801
Vinstance
p802
Vgnome-terminal-server
p803
sVtransient_for
p804
NsVwindow_role
p805
Vgnome-terminal-window-9db2ac63-c56c-42d3-a947-c96f194015ce
p806
sVclass
p807
VGnome-terminal
p808
sVtitle
p809
Vppiorkow@ppiorkow-desk:~
p810
ssVfullscreen_mode
p811
I0
sVorientation
p812
Vnone
p813
sg245
S'gnome-terminal'
p814
sVfocus
p815
(lp816
sVsticky
p817
I00
sVurgent
p818
I00
sVlast_split_layout
p819
Vsplith
p820
sVfloating
p821
Vauto_off
p822
sVborder
p823
Vnormal
p824
sVid
p825
I94591131845888
sVcurrent_border_width
p826
I2
sVlayout
p827
Vsplith
p828
sVpercent
p829
F0.5
sVworkspace_layout
p830
Vdefault
p831
sVwindow
p832
I71452185
sVnodes
p833
(lp834
sVtype
p835
Vcon
p836
sVdeco_rect
p837
(dp838
g101
I0
sg102
I0
sVheight
p839
I18
sVwidth
p840
I960
ssVswallows
p841
(lp842
sVfocused
p843
I00
sVscratchpad_state
p844
Vnone
p845
sVrect
p846
(dp847
g101
I41
sg102
I0
sVheight
p848
I571
sVwidth
p849
I960
ssVwindow_rect
p850
(dp851
g101
I0
sg102
I2
sVheight
p852
I569
sVwidth
p853
I956
ssVname
p854
Vppiorkow@ppiorkow-desk:~
p855
sVgeometry
p856
(dp857
g101
I0
sg102
I0
sVheight
p858
I434
sVwidth
p859
I734
ssVfloating_nodes
p860
(lp861
sVoutput
p862
VHDMI-0
p863
sa(dp864
Vwindow_properties
p865
(dp866
Vinstance
p867
Vgnome-terminal-server
p868
sVtransient_for
p869
NsVwindow_role
p870
Vgnome-terminal-window-09cf426f-7de6-41c8-b87f-160c48f99d10
p871
sVclass
p872
VGnome-terminal
p873
sVtitle
p874
Vppiorkow@ppiorkow-desk:~
p875
ssVfullscreen_mode
p876
I0
sVorientation
p877
Vnone
p878
sg245
S'gnome-terminal'
p879
sVfocus
p880
(lp881
sVsticky
p882
I00
sVurgent
p883
I00
sVlast_split_layout
p884
Vsplith
p885
sVfloating
p886
Vauto_off
p887
sVborder
p888
Vnormal
p889
sVid
p890
I94591131849040
sVcurrent_border_width
p891
I2
sVlayout
p892
Vsplith
p893
sVpercent
p894
F0.5
sVworkspace_layout
p895
Vdefault
p896
sVwindow
p897
I71472399
sVnodes
p898
(lp899
sVtype
p900
Vcon
p901
sVdeco_rect
p902
(dp903
g101
I589
sg102
I0
sVheight
p904
I18
sVwidth
p905
I960
ssVswallows
p906
(lp907
sVfocused
p908
I00
sVscratchpad_state
p909
Vnone
p910
sVrect
p911
(dp912
g101
I630
sg102
I0
sVheight
p913
I570
sVwidth
p914
I960
ssVwindow_rect
p915
(dp916
g101
I0
sg102
I2
sVheight
p917
I568
sVwidth
p918
I956
ssVname
p919
Vppiorkow@ppiorkow-desk:~
p920
sVgeometry
p921
(dp922
g101
I0
sg102
I0
sVheight
p923
I434
sVwidth
p924
I734
ssVfloating_nodes
p925
(lp926
sVoutput
p927
VHDMI-0
p928
sasVtype
p929
Vcon
p930
sVdeco_rect
p931
(dp932
g101
I0
sg102
I0
sVheight
p933
I0
sVwidth
p934
I0
ssVswallows
p935
(lp936
sVfocused
p937
I00
sVscratchpad_state
p938
Vnone
p939
sVrect
p940
(dp941
g101
I23
sg102
I0
sVheight
p942
I1177
sVwidth
p943
I960
ssVwindow_rect
p944
(dp945
g101
I0
sg102
I0
sVheight
p946
I0
sVwidth
p947
I0
ssVname
p948
NsVgeometry
p949
(dp950
g101
I0
sg102
I0
sVheight
p951
I0
sVwidth
p952
I0
ssVfloating_nodes
p953
(lp954
sVoutput
p955
VHDMI-0
p956
sa(dp957
Vfullscreen_mode
p958
I0
sVorientation
p959
Vhorizontal
p960
sVfocus
p961
(lp962
I94591131855440
asVsticky
p963
I00
sVurgent
p964
I00
sVlast_split_layout
p965
Vsplith
p966
sVfloating
p967
Vauto_off
p968
sVborder
p969
Vnormal
p970
sVid
p971
I94591131854976
sVcurrent_border_width
p972
I-1
sVlayout
p973
Vsplith
p974
sVpercent
p975
F0.5
sVworkspace_layout
p976
Vdefault
p977
sVwindow
p978
NsVnodes
p979
(lp980
(dp981
Vwindow_properties
p982
(dp983
Vinstance
p984
Vgnome-terminal-server
p985
sVtransient_for
p986
NsVwindow_role
p987
Vgnome-terminal-window-74684afc-4d7f-48c7-b9e8-19e261c122e7
p988
sVclass
p989
VGnome-terminal
p990
sVtitle
p991
Vppiorkow@ppiorkow-desk:~
p992
ssVfullscreen_mode
p993
I0
sVorientation
p994
Vnone
p995
sg245
S'gnome-terminal'
p996
sVfocus
p997
(lp998
sVsticky
p999
I00
sVurgent
p1000
I00
sVlast_split_layout
p1001
Vsplith
p1002
sVfloating
p1003
Vauto_off
p1004
sVborder
p1005
Vnormal
p1006
sVid
p1007
I94591131855440
sVcurrent_border_width
p1008
I2
sVlayout
p1009
Vsplith
p1010
sVpercent
p1011
F1.0
sVworkspace_layout
p1012
Vdefault
p1013
sVwindow
p1014
I71453230
sVnodes
p1015
(lp1016
sVtype
p1017
Vcon
p1018
sVdeco_rect
p1019
(dp1020
g101
I0
sg102
I0
sVheight
p1021
I18
sVwidth
p1022
I960
ssVswallows
p1023
(lp1024
sVfocused
p1025
I01
sVscratchpad_state
p1026
Vnone
p1027
sVrect
p1028
(dp1029
g101
I41
sg102
I960
sVheight
p1030
I1159
sVwidth
p1031
I960
ssVwindow_rect
p1032
(dp1033
g101
I0
sg102
I2
sVheight
p1034
I1157
sVwidth
p1035
I956
ssVname
p1036
Vppiorkow@ppiorkow-desk:~
p1037
sVgeometry
p1038
(dp1039
g101
I0
sg102
I0
sVheight
p1040
I434
sVwidth
p1041
I734
ssVfloating_nodes
p1042
(lp1043
sVoutput
p1044
VHDMI-0
p1045
sasVtype
p1046
Vcon
p1047
sVdeco_rect
p1048
(dp1049
g101
I0
sg102
I0
sVheight
p1050
I0
sVwidth
p1051
I0
ssVswallows
p1052
(lp1053
sVfocused
p1054
I00
sVscratchpad_state
p1055
Vnone
p1056
sVrect
p1057
(dp1058
g101
I23
sg102
I960
sVheight
p1059
I1177
sVwidth
p1060
I960
ssVwindow_rect
p1061
(dp1062
g101
I0
sg102
I0
sVheight
p1063
I0
sVwidth
p1064
I0
ssVname
p1065
NsVgeometry
p1066
(dp1067
g101
I0
sg102
I0
sVheight
p1068
I0
sVwidth
p1069
I0
ssVfloating_nodes
p1070
(lp1071
sVoutput
p1072
VHDMI-0
p1073
sasVtype
p1074
Vworkspace
p1075
sVdeco_rect
p1076
(dp1077
g101
I0
sg102
I0
sVheight
p1078
I0
sVwidth
p1079
I0
ssVswallows
p1080
(lp1081
sVfocused
p1082
I00
sVscratchpad_state
p1083
Vnone
p1084
sVrect
p1085
(dp1086
g101
I23
sg102
I0
sVheight
p1087
I1177
sVwidth
p1088
I1920
ssVwindow_rect
p1089
(dp1090
g101
I0
sg102
I0
sVheight
p1091
I0
sVwidth
p1092
I0
ssVname
p1093
V1
p1094
sVgeometry
p1095
(dp1096
g101
I0
sg102
I0
sVheight
p1097
I0
sVwidth
p1098
I0
ssVfloating_nodes
p1099
(lp1100
sVoutput
p1101
VHDMI-0
p1102
sasVtype
p1103
Vcon
p1104
sVdeco_rect
p1105
(dp1106
g101
I0
sg102
I0
sVheight
p1107
I0
sVwidth
p1108
I0
ssVswallows
p1109
(lp1110
sVfocused
p1111
I00
sVscratchpad_state
p1112
Vnone
p1113
sVrect
p1114
(dp1115
g101
I23
sg102
I0
sVheight
p1116
I1177
sVwidth
p1117
I1920
ssVwindow_rect
p1118
(dp1119
g101
I0
sg102
I0
sVheight
p1120
I0
sVwidth
p1121
I0
ssVname
p1122
Vcontent
p1123
sVgeometry
p1124
(dp1125
g101
I0
sg102
I0
sVheight
p1126
I0
sVwidth
p1127
I0
ssVfloating_nodes
p1128
(lp1129
sVoutput
p1130
VHDMI-0
p1131
sa(dp1132
Vfullscreen_mode
p1133
I0
sVorientation
p1134
Vnone
p1135
sVfocus
p1136
(lp1137
sVsticky
p1138
I00
sVurgent
p1139
I00
sVlast_split_layout
p1140
Vsplith
p1141
sVfloating
p1142
Vauto_off
p1143
sVborder
p1144
Vnormal
p1145
sVid
p1146
I94591131866656
sVcurrent_border_width
p1147
I-1
sVlayout
p1148
Vdockarea
p1149
sVpercent
p1150
F0.3333333333333333
sVworkspace_layout
p1151
Vdefault
p1152
sVwindow
p1153
NsVnodes
p1154
(lp1155
sVtype
p1156
Vdockarea
p1157
sVdeco_rect
p1158
(dp1159
g101
I0
sg102
I0
sVheight
p1160
I0
sVwidth
p1161
I0
ssVswallows
p1162
(lp1163
(dp1164
Vdock
p1165
I3
sVinsert_where
p1166
I2
sasVfocused
p1167
I00
sVscratchpad_state
p1168
Vnone
p1169
sVrect
p1170
(dp1171
g101
I1200
sg102
I0
sVheight
p1172
I0
sVwidth
p1173
I1920
ssVwindow_rect
p1174
(dp1175
g101
I0
sg102
I0
sVheight
p1176
I0
sVwidth
p1177
I0
ssVname
p1178
Vbottomdock
p1179
sVgeometry
p1180
(dp1181
g101
I0
sg102
I0
sVheight
p1182
I0
sVwidth
p1183
I0
ssVfloating_nodes
p1184
(lp1185
sVoutput
p1186
VHDMI-0
p1187
sasVtype
p1188
Voutput
p1189
sVdeco_rect
p1190
(dp1191
g101
I0
sg102
I0
sVheight
p1192
I0
sVwidth
p1193
I0
ssVswallows
p1194
(lp1195
sVfocused
p1196
I00
sVscratchpad_state
p1197
Vnone
p1198
sVrect
p1199
(dp1200
g101
I0
sg102
I0
sVheight
p1201
I1200
sVwidth
p1202
I1920
ssVwindow_rect
p1203
(dp1204
g101
I0
sg102
I0
sVheight
p1205
I0
sVwidth
p1206
I0
ssVname
p1207
VHDMI-0
p1208
sVgeometry
p1209
(dp1210
g101
I0
sg102
I0
sVheight
p1211
I0
sVwidth
p1212
I0
ssVfloating_nodes
p1213
(lp1214
sa(dp1215
Vfullscreen_mode
p1216
I0
sVorientation
p1217
Vnone
p1218
sVfocus
p1219
(lp1220
I94591131876384
aI94591131873072
aI94591131892480
asVsticky
p1221
I00
sVurgent
p1222
I00
sVlast_split_layout
p1223
Vsplith
p1224
sVfloating
p1225
Vauto_off
p1226
sVborder
p1227
Vnormal
p1228
sVid
p1229
I94591131872576
sVcurrent_border_width
p1230
I-1
sVlayout
p1231
Voutput
p1232
sVpercent
p1233
F0.25
sVworkspace_layout
p1234
Vdefault
p1235
sVwindow
p1236
NsVnodes
p1237
(lp1238
(dp1239
Vfullscreen_mode
p1240
I0
sVorientation
p1241
Vnone
p1242
sVfocus
p1243
(lp1244
I94591131668016
asVsticky
p1245
I00
sVurgent
p1246
I00
sVlast_split_layout
p1247
Vsplith
p1248
sVfloating
p1249
Vauto_off
p1250
sVborder
p1251
Vnormal
p1252
sVid
p1253
I94591131873072
sVcurrent_border_width
p1254
I-1
sVlayout
p1255
Vdockarea
p1256
sVpercent
p1257
F0.3333333333333333
sVworkspace_layout
p1258
Vdefault
p1259
sVwindow
p1260
NsVnodes
p1261
(lp1262
(dp1263
Vwindow_properties
p1264
(dp1265
Vinstance
p1266
Vi3bar
p1267
sVtransient_for
p1268
NsVclass
p1269
Vi3bar
p1270
sVtitle
p1271
Vi3bar for output DVI-D-0
p1272
ssVfullscreen_mode
p1273
I0
sVorientation
p1274
Vnone
p1275
sg245
S'i3bar'
p1276
sVfocus
p1277
(lp1278
sVsticky
p1279
I00
sVurgent
p1280
I00
sVlast_split_layout
p1281
Vsplith
p1282
sVfloating
p1283
Vauto_off
p1284
sVborder
p1285
Vnormal
p1286
sVid
p1287
I94591131668016
sVcurrent_border_width
p1288
I2
sVlayout
p1289
Vsplith
p1290
sVpercent
p1291
F1.0
sVworkspace_layout
p1292
Vdefault
p1293
sVwindow
p1294
I35651634
sVnodes
p1295
(lp1296
sVtype
p1297
Vcon
p1298
sVdeco_rect
p1299
(dp1300
g101
I0
sg102
I0
sVheight
p1301
I0
sVwidth
p1302
I0
ssVswallows
p1303
(lp1304
sVfocused
p1305
I00
sVscratchpad_state
p1306
Vnone
p1307
sVrect
p1308
(dp1309
g101
I0
sg102
I3840
sVheight
p1310
I23
sVwidth
p1311
I1920
ssVwindow_rect
p1312
(dp1313
g101
I0
sg102
I0
sVheight
p1314
I23
sVwidth
p1315
I1920
ssVname
p1316
Vi3bar for output DVI-D-0
p1317
sVgeometry
p1318
(dp1319
g101
I1177
sg102
I3840
sVheight
p1320
I23
sVwidth
p1321
I1920
ssVfloating_nodes
p1322
(lp1323
sVoutput
p1324
VDVI-D-0
p1325
sasVtype
p1326
Vdockarea
p1327
sVdeco_rect
p1328
(dp1329
g101
I0
sg102
I0
sVheight
p1330
I0
sVwidth
p1331
I0
ssVswallows
p1332
(lp1333
(dp1334
Vdock
p1335
I2
sVinsert_where
p1336
I2
sasVfocused
p1337
I00
sVscratchpad_state
p1338
Vnone
p1339
sVrect
p1340
(dp1341
g101
I0
sg102
I3840
sVheight
p1342
I23
sVwidth
p1343
I1920
ssVwindow_rect
p1344
(dp1345
g101
I0
sg102
I0
sVheight
p1346
I0
sVwidth
p1347
I0
ssVname
p1348
Vtopdock
p1349
sVgeometry
p1350
(dp1351
g101
I0
sg102
I0
sVheight
p1352
I0
sVwidth
p1353
I0
ssVfloating_nodes
p1354
(lp1355
sVoutput
p1356
VDVI-D-0
p1357
sa(dp1358
Vfullscreen_mode
p1359
I0
sVorientation
p1360
Vhorizontal
p1361
sVfocus
p1362
(lp1363
I94591131789184
aI94591131876848
aI94591131771888
aI94591132127616
asVsticky
p1364
I00
sVurgent
p1365
I00
sVlast_split_layout
p1366
Vsplith
p1367
sVfloating
p1368
Vauto_off
p1369
sVborder
p1370
Vnormal
p1371
sVid
p1372
I94591131876384
sVcurrent_border_width
p1373
I-1
sVlayout
p1374
Vsplith
p1375
sVpercent
p1376
F0.3333333333333333
sVworkspace_layout
p1377
Vdefault
p1378
sVwindow
p1379
NsVnodes
p1380
(lp1381
(dp1382
Vfullscreen_mode
p1383
I0
sVorientation
p1384
Vvertical
p1385
sVfocus
p1386
(lp1387
I94591132014960
asVsticky
p1388
I00
sVurgent
p1389
I00
sVnum
p1390
I3
sVlast_split_layout
p1391
Vsplitv
p1392
sVfloating
p1393
Vauto_off
p1394
sVborder
p1395
Vnormal
p1396
sVid
p1397
I94591131876848
sVcurrent_border_width
p1398
I-1
sVlayout
p1399
Vsplitv
p1400
sVpercent
p1401
F0.25
sVworkspace_layout
p1402
Vdefault
p1403
sVwindow
p1404
NsVnodes
p1405
(lp1406
(dp1407
Vfullscreen_mode
p1408
I0
sVorientation
p1409
Vhorizontal
p1410
sVfocus
p1411
(lp1412
I94591131877344
aI94591131880624
asVsticky
p1413
I00
sVurgent
p1414
I00
sVlast_split_layout
p1415
Vsplith
p1416
sVfloating
p1417
Vauto_off
p1418
sVborder
p1419
Vnormal
p1420
sVid
p1421
I94591132014960
sVcurrent_border_width
p1422
I-1
sVlayout
p1423
Vsplith
p1424
sVpercent
p1425
F1.0
sVworkspace_layout
p1426
Vdefault
p1427
sVwindow
p1428
NsVnodes
p1429
(lp1430
(dp1431
Vwindow_properties
p1432
(dp1433
Vinstance
p1434
VPidgin
p1435
sVtransient_for
p1436
NsVwindow_role
p1437
Vbuddy_list
p1438
sVclass
p1439
VPidgin
p1440
sVtitle
p1441
VBuddy List
p1442
ssVfullscreen_mode
p1443
I0
sVorientation
p1444
Vnone
p1445
sg245
S'pidgin'
p1446
sVfocus
p1447
(lp1448
sVsticky
p1449
I00
sVurgent
p1450
I00
sVlast_split_layout
p1451
Vsplith
p1452
sVfloating
p1453
Vauto_off
p1454
sVborder
p1455
Vnormal
p1456
sVid
p1457
I94591131877344
sVcurrent_border_width
p1458
I2
sVlayout
p1459
Vsplith
p1460
sVpercent
p1461
F0.5
sVworkspace_layout
p1462
Vdefault
p1463
sVwindow
p1464
I29360217
sVnodes
p1465
(lp1466
sVtype
p1467
Vcon
p1468
sVdeco_rect
p1469
(dp1470
g101
I0
sg102
I0
sVheight
p1471
I18
sVwidth
p1472
I960
ssVswallows
p1473
(lp1474
sVfocused
p1475
I00
sVscratchpad_state
p1476
Vnone
p1477
sVrect
p1478
(dp1479
g101
I41
sg102
I3840
sVheight
p1480
I1159
sVwidth
p1481
I960
ssVwindow_rect
p1482
(dp1483
g101
I0
sg102
I2
sVheight
p1484
I1157
sVwidth
p1485
I956
ssVname
p1486
VBuddy List
p1487
sVgeometry
p1488
(dp1489
g101
I18
sg102
I4800
sVheight
p1490
I1161
sVwidth
p1491
I956
ssVfloating_nodes
p1492
(lp1493
sVoutput
p1494
VDVI-D-0
p1495
sa(dp1496
Vwindow_properties
p1497
(dp1498
Vinstance
p1499
Vorg.gnome.Polari
p1500
sVtransient_for
p1501
NsVclass
p1502
VOrg.gnome.Polari
p1503
sVtitle
p1504
Vvpg
p1505
ssVfullscreen_mode
p1506
I0
sVorientation
p1507
Vnone
p1508
sg245
S'org.gnome.polari'
p1509
sVfocus
p1510
(lp1511
sVsticky
p1512
I00
sVurgent
p1513
I00
sVlast_split_layout
p1514
Vsplith
p1515
sVfloating
p1516
Vauto_off
p1517
sVborder
p1518
Vnone
p1519
sVid
p1520
I94591131880624
sVcurrent_border_width
p1521
I2
sVlayout
p1522
Vsplith
p1523
sVpercent
p1524
F0.5
sVworkspace_layout
p1525
Vdefault
p1526
sVwindow
p1527
I20971527
sVnodes
p1528
(lp1529
sVtype
p1530
Vcon
p1531
sVdeco_rect
p1532
(dp1533
g101
I0
sg102
I0
sVheight
p1534
I0
sVwidth
p1535
I0
ssVswallows
p1536
(lp1537
sVfocused
p1538
I00
sVscratchpad_state
p1539
Vnone
p1540
sVrect
p1541
(dp1542
g101
I23
sg102
I4800
sVheight
p1543
I1177
sVwidth
p1544
I960
ssVwindow_rect
p1545
(dp1546
g101
I0
sg102
I0
sVheight
p1547
I1177
sVwidth
p1548
I960
ssVname
p1549
Vvpg
p1550
sVgeometry
p1551
(dp1552
g101
I0
sg102
I0
sVheight
p1553
I1161
sVwidth
p1554
I1916
ssVfloating_nodes
p1555
(lp1556
sVoutput
p1557
VDVI-D-0
p1558
sasVtype
p1559
Vcon
p1560
sVdeco_rect
p1561
(dp1562
g101
I0
sg102
I0
sVheight
p1563
I0
sVwidth
p1564
I0
ssVswallows
p1565
(lp1566
sVfocused
p1567
I00
sVscratchpad_state
p1568
Vnone
p1569
sVrect
p1570
(dp1571
g101
I23
sg102
I3840
sVheight
p1572
I1177
sVwidth
p1573
I1920
ssVwindow_rect
p1574
(dp1575
g101
I0
sg102
I0
sVheight
p1576
I0
sVwidth
p1577
I0
ssVname
p1578
NsVgeometry
p1579
(dp1580
g101
I0
sg102
I0
sVheight
p1581
I0
sVwidth
p1582
I0
ssVfloating_nodes
p1583
(lp1584
sVoutput
p1585
VDVI-D-0
p1586
sasVtype
p1587
Vworkspace
p1588
sVdeco_rect
p1589
(dp1590
g101
I0
sg102
I0
sVheight
p1591
I0
sVwidth
p1592
I0
ssVswallows
p1593
(lp1594
sVfocused
p1595
I00
sVscratchpad_state
p1596
Vnone
p1597
sVrect
p1598
(dp1599
g101
I23
sg102
I3840
sVheight
p1600
I1177
sVwidth
p1601
I1920
ssVwindow_rect
p1602
(dp1603
g101
I0
sg102
I0
sVheight
p1604
I0
sVwidth
p1605
I0
ssVname
p1606
V3
p1607
sVgeometry
p1608
(dp1609
g101
I0
sg102
I0
sVheight
p1610
I0
sVwidth
p1611
I0
ssVfloating_nodes
p1612
(lp1613
sVoutput
p1614
VDVI-D-0
p1615
sa(dp1616
Vfullscreen_mode
p1617
I1
sVorientation
p1618
Vhorizontal
p1619
sVfocus
p1620
(lp1621
I94591131786176
asVsticky
p1622
I00
sVurgent
p1623
I00
sVnum
p1624
I4
sVlast_split_layout
p1625
Vsplith
p1626
sVfloating
p1627
Vauto_off
p1628
sVborder
p1629
Vnormal
p1630
sVid
p1631
I94591131789184
sVcurrent_border_width
p1632
I-1
sVlayout
p1633
Vsplith
p1634
sVpercent
p1635
F0.25
sVworkspace_layout
p1636
Vdefault
p1637
sVwindow
p1638
NsVnodes
p1639
(lp1640
(dp1641
Vwindow_properties
p1642
(dp1643
Vinstance
p1644
VMail
p1645
sVtransient_for
p1646
NsVwindow_role
p1647
V3pane
p1648
sVclass
p1649
VThunderbird
p1650
sVtitle
p1651
VInbox - Mozilla Thunderbird
p1652
ssVfullscreen_mode
p1653
I0
sVorientation
p1654
Vnone
p1655
sg245
S'thunderbird'
p1656
sVfocus
p1657
(lp1658
sVsticky
p1659
I00
sVurgent
p1660
I00
sVlast_split_layout
p1661
Vsplith
p1662
sVfloating
p1663
Vauto_off
p1664
sVborder
p1665
Vnormal
p1666
sVid
p1667
I94591131786176
sVcurrent_border_width
p1668
I2
sVlayout
p1669
Vsplith
p1670
sVpercent
p1671
F1.0
sVworkspace_layout
p1672
Vdefault
p1673
sVwindow
p1674
I37748752
sVnodes
p1675
(lp1676
sVtype
p1677
Vcon
p1678
sVdeco_rect
p1679
(dp1680
g101
I0
sg102
I0
sVheight
p1681
I18
sVwidth
p1682
I1920
ssVswallows
p1683
(lp1684
sVfocused
p1685
I00
sVscratchpad_state
p1686
Vnone
p1687
sVrect
p1688
(dp1689
g101
I41
sg102
I3840
sVheight
p1690
I1159
sVwidth
p1691
I1920
ssVwindow_rect
p1692
(dp1693
g101
I0
sg102
I2
sVheight
p1694
I1157
sVwidth
p1695
I1916
ssVname
p1696
VInbox - Mozilla Thunderbird
p1697
sVgeometry
p1698
(dp1699
g101
I0
sg102
I0
sVheight
p1700
I864
sVwidth
p1701
I1024
ssVfloating_nodes
p1702
(lp1703
sVoutput
p1704
VDVI-D-0
p1705
sasVtype
p1706
Vworkspace
p1707
sVdeco_rect
p1708
(dp1709
g101
I0
sg102
I0
sVheight
p1710
I0
sVwidth
p1711
I0
ssVswallows
p1712
(lp1713
sVfocused
p1714
I00
sVscratchpad_state
p1715
Vnone
p1716
sVrect
p1717
(dp1718
g101
I23
sg102
I3840
sVheight
p1719
I1177
sVwidth
p1720
I1920
ssVwindow_rect
p1721
(dp1722
g101
I0
sg102
I0
sVheight
p1723
I0
sVwidth
p1724
I0
ssVname
p1725
V4
p1726
sVgeometry
p1727
(dp1728
g101
I0
sg102
I0
sVheight
p1729
I0
sVwidth
p1730
I0
ssVfloating_nodes
p1731
(lp1732
sVoutput
p1733
VDVI-D-0
p1734
sa(dp1735
Vfullscreen_mode
p1736
I0
sVorientation
p1737
Vhorizontal
p1738
sVfocus
p1739
(lp1740
I94591132033216
asVsticky
p1741
I00
sVurgent
p1742
I00
sVnum
p1743
I5
sVlast_split_layout
p1744
Vsplith
p1745
sVfloating
p1746
Vauto_off
p1747
sVborder
p1748
Vnormal
p1749
sVid
p1750
I94591131771888
sVcurrent_border_width
p1751
I-1
sVlayout
p1752
Vsplith
p1753
sVpercent
p1754
F0.5
sVworkspace_layout
p1755
Vdefault
p1756
sVwindow
p1757
NsVnodes
p1758
(lp1759
(dp1760
Vwindow_properties
p1761
(dp1762
Vinstance
p1763
Vgnome-terminal-server
p1764
sVtransient_for
p1765
NsVwindow_role
p1766
Vgnome-terminal-window-84953c06-af06-48f4-a33d-f736914eed38
p1767
sVclass
p1768
VGnome-terminal
p1769
sVtitle
p1770
Vppiorkow@ppiorkow-desk:~
p1771
ssVfullscreen_mode
p1772
I0
sVorientation
p1773
Vnone
p1774
sg245
S'gnome-terminal'
p1775
sVfocus
p1776
(lp1777
sVsticky
p1778
I00
sVurgent
p1779
I00
sVlast_split_layout
p1780
Vsplith
p1781
sVfloating
p1782
Vauto_off
p1783
sVborder
p1784
Vnormal
p1785
sVid
p1786
I94591132033216
sVcurrent_border_width
p1787
I2
sVlayout
p1788
Vsplith
p1789
sVpercent
p1790
F1.0
sVworkspace_layout
p1791
Vdefault
p1792
sVwindow
p1793
I71486837
sVnodes
p1794
(lp1795
sVtype
p1796
Vcon
p1797
sVdeco_rect
p1798
(dp1799
g101
I0
sg102
I0
sVheight
p1800
I18
sVwidth
p1801
I1920
ssVswallows
p1802
(lp1803
sVfocused
p1804
I00
sVscratchpad_state
p1805
Vnone
p1806
sVrect
p1807
(dp1808
g101
I41
sg102
I3840
sVheight
p1809
I1159
sVwidth
p1810
I1920
ssVwindow_rect
p1811
(dp1812
g101
I0
sg102
I2
sVheight
p1813
I1157
sVwidth
p1814
I1916
ssVname
p1815
Vppiorkow@ppiorkow-desk:~
p1816
sVgeometry
p1817
(dp1818
g101
I0
sg102
I0
sVheight
p1819
I434
sVwidth
p1820
I734
ssVfloating_nodes
p1821
(lp1822
sVoutput
p1823
VDVI-D-0
p1824
sasVtype
p1825
Vworkspace
p1826
sVdeco_rect
p1827
(dp1828
g101
I0
sg102
I0
sVheight
p1829
I0
sVwidth
p1830
I0
ssVswallows
p1831
(lp1832
sVfocused
p1833
I00
sVscratchpad_state
p1834
Vnone
p1835
sVrect
p1836
(dp1837
g101
I23
sg102
I3840
sVheight
p1838
I1177
sVwidth
p1839
I1920
ssVwindow_rect
p1840
(dp1841
g101
I0
sg102
I0
sVheight
p1842
I0
sVwidth
p1843
I0
ssVname
p1844
V5
p1845
sVgeometry
p1846
(dp1847
g101
I0
sg102
I0
sVheight
p1848
I0
sVwidth
p1849
I0
ssVfloating_nodes
p1850
(lp1851
sVoutput
p1852
VDVI-D-0
p1853
sa(dp1854
Vfullscreen_mode
p1855
I0
sVorientation
p1856
Vhorizontal
p1857
sVfocus
p1858
(lp1859
I94591132145808
asVsticky
p1860
I00
sVurgent
p1861
I00
sVnum
p1862
I10
sVlast_split_layout
p1863
Vsplith
p1864
sVfloating
p1865
Vauto_off
p1866
sVborder
p1867
Vnormal
p1868
sVid
p1869
I94591132127616
sVcurrent_border_width
p1870
I-1
sVlayout
p1871
Vsplith
p1872
sVpercent
p1873
NsVworkspace_layout
p1874
Vdefault
p1875
sVwindow
p1876
NsVnodes
p1877
(lp1878
(dp1879
Vwindow_properties
p1880
(dp1881
Vinstance
p1882
Vspotify
p1883
sVtransient_for
p1884
NsVclass
p1885
VSpotify
p1886
sVtitle
p1887
VSexbomba - Lipiec '86
p1888
ssVfullscreen_mode
p1889
I0
sVorientation
p1890
Vnone
p1891
sg245
S'spotify'
p1892
sVfocus
p1893
(lp1894
sVsticky
p1895
I00
sVurgent
p1896
I00
sVlast_split_layout
p1897
Vsplith
p1898
sVfloating
p1899
Vauto_off
p1900
sVborder
p1901
Vnormal
p1902
sVid
p1903
I94591132145808
sVcurrent_border_width
p1904
I2
sVlayout
p1905
Vsplith
p1906
sVpercent
p1907
F1.0
sVworkspace_layout
p1908
Vdefault
p1909
sVwindow
p1910
I41943041
sVnodes
p1911
(lp1912
sVtype
p1913
Vcon
p1914
sVdeco_rect
p1915
(dp1916
g101
I0
sg102
I0
sVheight
p1917
I18
sVwidth
p1918
I1920
ssVswallows
p1919
(lp1920
sVfocused
p1921
I00
sVscratchpad_state
p1922
Vnone
p1923
sVrect
p1924
(dp1925
g101
I41
sg102
I3840
sVheight
p1926
I1159
sVwidth
p1927
I1920
ssVwindow_rect
p1928
(dp1929
g101
I0
sg102
I2
sVheight
p1930
I1157
sVwidth
p1931
I1916
ssVname
p1932
VSexbomba - Lipiec '86
p1933
sVgeometry
p1934
(dp1935
g101
I0
sg102
I0
sVheight
p1936
I600
sVwidth
p1937
I800
ssVfloating_nodes
p1938
(lp1939
sVoutput
p1940
VDVI-D-0
p1941
sasVtype
p1942
Vworkspace
p1943
sVdeco_rect
p1944
(dp1945
g101
I0
sg102
I0
sVheight
p1946
I0
sVwidth
p1947
I0
ssVswallows
p1948
(lp1949
sVfocused
p1950
I00
sVscratchpad_state
p1951
Vnone
p1952
sVrect
p1953
(dp1954
g101
I23
sg102
I3840
sVheight
p1955
I1177
sVwidth
p1956
I1920
ssVwindow_rect
p1957
(dp1958
g101
I0
sg102
I0
sVheight
p1959
I0
sVwidth
p1960
I0
ssVname
p1961
V10
p1962
sVgeometry
p1963
(dp1964
g101
I0
sg102
I0
sVheight
p1965
I0
sVwidth
p1966
I0
ssVfloating_nodes
p1967
(lp1968
sVoutput
p1969
VDVI-D-0
p1970
sasVtype
p1971
Vcon
p1972
sVdeco_rect
p1973
(dp1974
g101
I0
sg102
I0
sVheight
p1975
I0
sVwidth
p1976
I0
ssVswallows
p1977
(lp1978
sVfocused
p1979
I00
sVscratchpad_state
p1980
Vnone
p1981
sVrect
p1982
(dp1983
g101
I23
sg102
I3840
sVheight
p1984
I1177
sVwidth
p1985
I1920
ssVwindow_rect
p1986
(dp1987
g101
I0
sg102
I0
sVheight
p1988
I0
sVwidth
p1989
I0
ssVname
p1990
Vcontent
p1991
sVgeometry
p1992
(dp1993
g101
I0
sg102
I0
sVheight
p1994
I0
sVwidth
p1995
I0
ssVfloating_nodes
p1996
(lp1997
sVoutput
p1998
VDVI-D-0
p1999
sa(dp2000
Vfullscreen_mode
p2001
I0
sVorientation
p2002
Vnone
p2003
sVfocus
p2004
(lp2005
sVsticky
p2006
I00
sVurgent
p2007
I00
sVlast_split_layout
p2008
Vsplith
p2009
sVfloating
p2010
Vauto_off
p2011
sVborder
p2012
Vnormal
p2013
sVid
p2014
I94591131892480
sVcurrent_border_width
p2015
I-1
sVlayout
p2016
Vdockarea
p2017
sVpercent
p2018
F0.3333333333333333
sVworkspace_layout
p2019
Vdefault
p2020
sVwindow
p2021
NsVnodes
p2022
(lp2023
sVtype
p2024
Vdockarea
p2025
sVdeco_rect
p2026
(dp2027
g101
I0
sg102
I0
sVheight
p2028
I0
sVwidth
p2029
I0
ssVswallows
p2030
(lp2031
(dp2032
Vdock
p2033
I3
sVinsert_where
p2034
I2
sasVfocused
p2035
I00
sVscratchpad_state
p2036
Vnone
p2037
sVrect
p2038
(dp2039
g101
I1200
sg102
I3840
sVheight
p2040
I0
sVwidth
p2041
I1920
ssVwindow_rect
p2042
(dp2043
g101
I0
sg102
I0
sVheight
p2044
I0
sVwidth
p2045
I0
ssVname
p2046
Vbottomdock
p2047
sVgeometry
p2048
(dp2049
g101
I0
sg102
I0
sVheight
p2050
I0
sVwidth
p2051
I0
ssVfloating_nodes
p2052
(lp2053
sVoutput
p2054
VDVI-D-0
p2055
sasVtype
p2056
Voutput
p2057
sVdeco_rect
p2058
(dp2059
g101
I0
sg102
I0
sVheight
p2060
I0
sVwidth
p2061
I0
ssVswallows
p2062
(lp2063
sVfocused
p2064
I00
sVscratchpad_state
p2065
Vnone
p2066
sVrect
p2067
(dp2068
g101
I0
sg102
I3840
sVheight
p2069
I1200
sVwidth
p2070
I1920
ssVwindow_rect
p2071
(dp2072
g101
I0
sg102
I0
sVheight
p2073
I0
sVwidth
p2074
I0
ssVname
p2075
VDVI-D-0
p2076
sVgeometry
p2077
(dp2078
g101
I0
sg102
I0
sVheight
p2079
I0
sVwidth
p2080
I0
ssVfloating_nodes
p2081
(lp2082
sasVtype
p2083
Vroot
p2084
sVdeco_rect
p2085
(dp2086
g101
I0
sg102
I0
sVheight
p2087
I0
sVwidth
p2088
I0
ssVswallows
p2089
(lp2090
sVfocused
p2091
I00
sVscratchpad_state
p2092
Vnone
p2093
sVrect
p2094
(dp2095
g101
I0
sg102
I0
sVheight
p2096
I1200
sVwidth
p2097
I5760
ssVwindow_rect
p2098
(dp2099
g101
I0
sg102
I0
sVheight
p2100
I0
sVwidth
p2101
I0
ssVname
p2102
Vroot
p2103
sVgeometry
p2104
(dp2105
g101
I0
sg102
I0
sVheight
p2106
I0
sVwidth
p2107
I0
ssVfloating_nodes
p2108
(lp2109
s.